; Function Attrs: mustprogress nofree norecurse nosync nounwind willreturn memory(argmem: readwrite) uwtable
define void @_ZN5boost7archive17archive_exceptionC1ERKS1_(ptr nocapture noundef nonnull writeonly align 8 dereferenceable(140) %0, ptr nocapture noundef nonnull readonly align 8 dereferenceable(140) %1) unnamed_addr #4 align 2 {
  store ptr getelementptr inbounds inrange(-40, 24) (i8, ptr @_ZTVN5boost7archive17archive_exceptionE, i64 40), ptr %0, align 8, !tbaa !6
  %3 = getelementptr inbounds nuw i8, ptr %0, i64 136
  %4 = getelementptr inbounds nuw i8, ptr %1, i64 136
  %5 = load i32, ptr %4, align 8, !tbaa !8
  store i32 %5, ptr %3, align 8, !tbaa !8
  %6 = getelementptr inbounds nuw i8, ptr %0, i64 8
  %7 = getelementptr inbounds nuw i8, ptr %1, i64 8
  tail call void @llvm.memcpy.p0.p0.i64(ptr noundef nonnull align 8 dereferenceable(128) %6, ptr noundef nonnull align 8 dereferenceable(128) %7, i64 128, i1 false)
  ret void
}